(ibearstorage
BearStorage
p0
(dp1
S'tracert'
p2
S''
p3
sS'rawrequest'
p4
S'GET /test HTTP/1.1\r\nUser-Agent: Mozilla/5.0 (Windows NT; Windows NT 10.0; en-US) WindowsPowerShell/5.1.14393.206\r\nHost: 127.0.0.1\r\n\r\n'
p5
sS'isDetected'
p6
I01
sS'ip'
p7
S'127.0.0.1'
p8
sS'headers'
p9
(imimetools
Message
p10
(dp11
S'fp'
p12
(iStringIO
StringIO
p13
(dp14
S'softspace'
p15
I0
sS'buflist'
p16
(lp17
sS'pos'
p18
I133
sS'len'
p19
I133
sS'closed'
p20
I00
sS'buf'
p21
g5
sbsS'status'
p22
g3
sS'startofbody'
p23
NsS'startofheaders'
p24
NsS'subtype'
p25
S'plain'
p26
sS'type'
p27
S'text/plain'
p28
sS'maintype'
p29
S'text'
p30
sg9
(lp31
S'User-Agent: Mozilla/5.0 (Windows NT; Windows NT 10.0; en-US) WindowsPowerShell/5.1.14393.206\r\n'
p32
aS'Host: 127.0.0.1\r\n'
p33
asS'dict'
p34
(dp35
S'host'
p36
S'127.0.0.1'
p37
sS'user-agent'
p38
S'Mozilla/5.0 (Windows NT; Windows NT 10.0; en-US) WindowsPowerShell/5.1.14393.206'
p39
ssS'typeheader'
p40
NsS'encodingheader'
p41
NsS'seekable'
p42
I0
sS'unixfrom'
p43
g3
sS'plisttext'
p44
g3
sS'plist'
p45
(lp46
sbsS'version'
p47
S'HTTP/1.1'
p48
sS'command'
p49
S'GET'
p50
sS'timestamp'
p51
S'2016-10-21 11;44;47.768000'
p52
sS'timezone'
p53
g3
sS'path'
p54
S'/test'
p55
sS'country'
p56
g3
sS'continent'
p57
g3
sS'dnsname'
p58
S'activate.adobe.com'
p59
sb.